; ModuleID = 'bench/linux/original/trans_common.ll'
source_filename = "bench/linux/original/trans_common.ll"
target datalayout = "e-m:e-p270:32:32-p271:32:32-p272:64:64-i64:64-i128:128-f80:128-n8:16:32:64-S128"
target triple = "x86_64-unknown-linux-gnu"

module asm ".section \22.export_symbol\22,\22a\22 ; __export_symbol_p9_release_pages: ; .asciz \22\22 ; .asciz \22\22 ; .balign 8 ; .quad p9_release_pages ; .previous"

%struct.static_key_false = type { %struct.static_key }
%struct.static_key = type { %struct.atomic_t, %union.anon.17 }
%struct.atomic_t = type { i32 }
%union.anon.17 = type { i64 }

@__UNIQUE_ID___addressable_p9_release_pages339 = internal global ptr @p9_release_pages, section ".discard.addressable", align 8
@hugetlb_optimize_vmemmap_key = external dso_local global %struct.static_key_false, align 8
@llvm.compiler.used = appending global [1 x ptr] [ptr @__UNIQUE_ID___addressable_p9_release_pages339], section "llvm.metadata"

; Function Attrs: fn_ret_thunk_extern nounwind null_pointer_is_valid
define dso_local void @p9_release_pages(ptr nocapture noundef readonly %0, i32 noundef %1) #0 align 16 {
  %3 = icmp sgt i32 %1, 0
  br i1 %3, label %4, label %.loopexit

4:                                                ; preds = %2
  %5 = zext nneg i32 %1 to i64
  br label %6

6:                                                ; preds = %43, %4
  %7 = phi i64 [ 0, %4 ], [ %44, %43 ]
  %8 = getelementptr ptr, ptr %0, i64 %7
  %9 = load ptr, ptr %8, align 8
  %10 = icmp eq ptr %9, null
  br i1 %10, label %43, label %11

11:                                               ; preds = %6
  %12 = getelementptr inbounds i8, ptr %9, i64 8
  %13 = load volatile i64, ptr %12, align 8
  %14 = and i64 %13, 1
  %15 = icmp eq i64 %14, 0
  br i1 %15, label %19, label %16, !prof !5

16:                                               ; preds = %11
  %17 = add nsw i64 %13, -1
  %18 = inttoptr i64 %17 to ptr
  br label %36

19:                                               ; preds = %11
  callbr void asm sideeffect "1:jmp ${2:l} # objtool NOPs this \0A\09.pushsection __jump_table,  \22aw\22 \0A\09 .balign 8 \0A\09.long 1b - . \0A\09.long ${2:l} - . \0A\09 .quad ${0:c} + ${1:c} - .\0A\09.popsection \0A\09", "i,i,!i,~{dirflag},~{fpsr},~{flags}"(ptr nonnull @hugetlb_optimize_vmemmap_key, i32 2) #3
          to label %36 [label %20], !srcloc !6

20:                                               ; preds = %19
  %21 = ptrtoint ptr %9 to i64
  %22 = and i64 %21, 4095
  %23 = icmp eq i64 %22, 0
  br i1 %23, label %24, label %35

24:                                               ; preds = %20
  %25 = load volatile i64, ptr %9, align 8
  %26 = and i64 %25, 64
  %27 = icmp eq i64 %26, 0
  br i1 %27, label %35, label %28

28:                                               ; preds = %24
  %29 = getelementptr i8, ptr %9, i64 72
  %30 = load volatile i64, ptr %29, align 8
  %31 = and i64 %30, 1
  %32 = icmp eq i64 %31, 0
  %33 = add nsw i64 %30, -1
  %34 = inttoptr i64 %33 to ptr
  br i1 %32, label %35, label %36

35:                                               ; preds = %28, %24, %20
  br label %36

36:                                               ; preds = %35, %28, %19, %16
  %37 = phi ptr [ %18, %16 ], [ %34, %28 ], [ %9, %35 ], [ %9, %19 ]
  %38 = getelementptr inbounds i8, ptr %37, i64 52
  %39 = tail call i8 asm sideeffect ".pushsection .smp_locks,\22a\22\0A.balign 4\0A.long 671f - .\0A.popsection\0A671:\0A\09lock; decl $0\0A\09/* output condition code e*/\0A", "=*m,={@cce},*m,~{memory},~{dirflag},~{fpsr},~{flags}"(ptr elementtype(i32) %38, ptr elementtype(i32) %38) #3, !srcloc !7
  %40 = icmp ult i8 %39, 2
  tail call void @llvm.assume(i1 %40)
  %41 = icmp eq i8 %39, 0
  br i1 %41, label %43, label %42

42:                                               ; preds = %36
  tail call void @__folio_put(ptr noundef %37) #3
  br label %43

43:                                               ; preds = %42, %36, %6
  %44 = add nuw nsw i64 %7, 1
  %45 = icmp eq i64 %44, %5
  br i1 %45, label %.loopexit, label %6, !llvm.loop !8

.loopexit:                                        ; preds = %43, %2
  ret void
}

; Function Attrs: mustprogress nocallback nofree nosync nounwind willreturn memory(inaccessiblemem: write)
declare void @llvm.assume(i1 noundef) #1

; Function Attrs: null_pointer_is_valid
declare dso_local void @__folio_put(ptr noundef) local_unnamed_addr #2


!llvm.module.flags = !{!0, !1, !2, !3, !4}

!0 = !{i32 1, !"wchar_size", i32 2}
!1 = !{i32 8, !"cf-protection-branch", i32 1}
!2 = !{i32 4, !"function_return_thunk_extern", i32 1}
!3 = !{i32 4, !"indirect_branch_cs_prefix", i32 1}
!4 = !{i32 4, !"SkipRaxSetup", i32 1}
!5 = !{!"branch_weights", i32 2000, i32 1}
!6 = !{i64 801040, i64 801084, i64 2148288059, i64 2148288080, i64 2148288106, i64 2148288139, i64 2148288173, i64 2148288197}
!7 = !{i64 2148975013, i64 2148975052, i64 2148975073, i64 2148975110, i64 2148975133, i64 2148975142, i64 2148975216}
!8 = distinct !{!8, !9, !10}
!9 = !{!"llvm.loop.mustprogress"}
!10 = !{!"llvm.loop.unroll.disable"}
